target datalayout = "e-m:e-p270:32:32-p271:32:32-p272:64:64-i64:64-i128:128-f80:128-n8:16:32:64-S128"
target triple = "x86_64-pc-linux-gnu"

%union.lv_style_value_t = type { ptr }

; Function Attrs: inlinehint nounwind uwtable
define internal i32 @lv_obj_get_style_outline_pad(ptr noundef %0, i32 noundef %1) #3 {
  %3 = alloca ptr, align 8
  %4 = alloca i32, align 4
  %5 = alloca %union.lv_style_value_t, align 8
  store ptr %0, ptr %3, align 8, !tbaa !8
  store i32 %1, ptr %4, align 4, !tbaa !33
  call void @llvm.lifetime.start.p0(i64 8, ptr %5) #5
  %6 = load ptr, ptr %3, align 8, !tbaa !8
  %7 = load i32, ptr %4, align 4, !tbaa !33
  %8 = call ptr @lv_obj_get_style_prop(ptr noundef %6, i32 noundef %7, i8 noundef zeroext 59)
  %9 = getelementptr inbounds nuw %union.lv_style_value_t, ptr %5, i32 0, i32 0
  store ptr %8, ptr %9, align 8
  %10 = load i32, ptr %5, align 8, !tbaa !71
  call void @llvm.lifetime.end.p0(i64 8, ptr %5) #5
  ret i32 %10
}

; Function Attrs: inlinehint nounwind uwtable
define internal i32 @lv_obj_get_style_outline_width(ptr noundef %0, i32 noundef %1) #3 {
  %3 = alloca ptr, align 8
  %4 = alloca i32, align 4
  %5 = alloca %union.lv_style_value_t, align 8
  store ptr %0, ptr %3, align 8, !tbaa !8
  store i32 %1, ptr %4, align 4, !tbaa !33
  call void @llvm.lifetime.start.p0(i64 8, ptr %5) #5
  %6 = load ptr, ptr %3, align 8, !tbaa !8
  %7 = load i32, ptr %4, align 4, !tbaa !33
  %8 = call ptr @lv_obj_get_style_prop(ptr noundef %6, i32 noundef %7, i8 noundef zeroext 56)
  %9 = getelementptr inbounds nuw %union.lv_style_value_t, ptr %5, i32 0, i32 0
  store ptr %8, ptr %9, align 8
  %10 = load i32, ptr %5, align 8, !tbaa !71
  call void @llvm.lifetime.end.p0(i64 8, ptr %5) #5
  ret i32 %10
}

; Function Attrs: inlinehint nounwind uwtable
define internal i32 @lv_obj_get_style_shadow_offset_y(ptr noundef %0, i32 noundef %1) #3 {
  %3 = alloca ptr, align 8
  %4 = alloca i32, align 4
  %5 = alloca %union.lv_style_value_t, align 8
  store ptr %0, ptr %3, align 8, !tbaa !8
  store i32 %1, ptr %4, align 4, !tbaa !33
  call void @llvm.lifetime.start.p0(i64 8, ptr %5) #5
  %6 = load ptr, ptr %3, align 8, !tbaa !8
  %7 = load i32, ptr %4, align 4, !tbaa !33
  %8 = call ptr @lv_obj_get_style_prop(ptr noundef %6, i32 noundef %7, i8 noundef zeroext 65)
  %9 = getelementptr inbounds nuw %union.lv_style_value_t, ptr %5, i32 0, i32 0
  store ptr %8, ptr %9, align 8
  %10 = load i32, ptr %5, align 8, !tbaa !71
  call void @llvm.lifetime.end.p0(i64 8, ptr %5) #5
  ret i32 %10
}

; Function Attrs: inlinehint nounwind uwtable
define internal i32 @lv_obj_get_style_shadow_offset_x(ptr noundef %0, i32 noundef %1) #3 {
  %3 = alloca ptr, align 8
  %4 = alloca i32, align 4
  %5 = alloca %union.lv_style_value_t, align 8
  store ptr %0, ptr %3, align 8, !tbaa !8
  store i32 %1, ptr %4, align 4, !tbaa !33
  call void @llvm.lifetime.start.p0(i64 8, ptr %5) #5
  %6 = load ptr, ptr %3, align 8, !tbaa !8
  %7 = load i32, ptr %4, align 4, !tbaa !33
  %8 = call ptr @lv_obj_get_style_prop(ptr noundef %6, i32 noundef %7, i8 noundef zeroext 64)
  %9 = getelementptr inbounds nuw %union.lv_style_value_t, ptr %5, i32 0, i32 0
  store ptr %8, ptr %9, align 8
  %10 = load i32, ptr %5, align 8, !tbaa !71
  call void @llvm.lifetime.end.p0(i64 8, ptr %5) #5
  ret i32 %10
}

; Function Attrs: inlinehint nounwind uwtable
define internal i32 @lv_obj_get_style_shadow_spread(ptr noundef %0, i32 noundef %1) #3 {
  %3 = alloca ptr, align 8
  %4 = alloca i32, align 4
  %5 = alloca %union.lv_style_value_t, align 8
  store ptr %0, ptr %3, align 8, !tbaa !8
  store i32 %1, ptr %4, align 4, !tbaa !33
  call void @llvm.lifetime.start.p0(i64 8, ptr %5) #5
  %6 = load ptr, ptr %3, align 8, !tbaa !8
  %7 = load i32, ptr %4, align 4, !tbaa !33
  %8 = call ptr @lv_obj_get_style_prop(ptr noundef %6, i32 noundef %7, i8 noundef zeroext 66)
  %9 = getelementptr inbounds nuw %union.lv_style_value_t, ptr %5, i32 0, i32 0
  store ptr %8, ptr %9, align 8
  %10 = load i32, ptr %5, align 8, !tbaa !71
  call void @llvm.lifetime.end.p0(i64 8, ptr %5) #5
  ret i32 %10
}

; Function Attrs: inlinehint nounwind uwtable
define internal i32 @lv_obj_get_style_shadow_width(ptr noundef %0, i32 noundef %1) #3 {
  %3 = alloca ptr, align 8
  %4 = alloca i32, align 4
  %5 = alloca %union.lv_style_value_t, align 8
  store ptr %0, ptr %3, align 8, !tbaa !8
  store i32 %1, ptr %4, align 4, !tbaa !33
  call void @llvm.lifetime.start.p0(i64 8, ptr %5) #5
  %6 = load ptr, ptr %3, align 8, !tbaa !8
  %7 = load i32, ptr %4, align 4, !tbaa !33
  %8 = call ptr @lv_obj_get_style_prop(ptr noundef %6, i32 noundef %7, i8 noundef zeroext 60)
  %9 = getelementptr inbounds nuw %union.lv_style_value_t, ptr %5, i32 0, i32 0
  store ptr %8, ptr %9, align 8
  %10 = load i32, ptr %5, align 8, !tbaa !71
  call void @llvm.lifetime.end.p0(i64 8, ptr %5) #5
  ret i32 %10
}

; Function Attrs: nounwind uwtable
define internal i32 @knob_get_extra_size(ptr noundef %0) #0 {
  %2 = alloca ptr, align 8
  %3 = alloca i32, align 4
  %4 = alloca i32, align 4
  store ptr %0, ptr %2, align 8, !tbaa !8
  call void @llvm.lifetime.start.p0(i64 4, ptr %3) #5
  store i32 0, ptr %3, align 4, !tbaa !33
  %5 = load ptr, ptr %2, align 8, !tbaa !8
  %6 = call i32 @lv_obj_get_style_shadow_width(ptr noundef %5, i32 noundef 196608)
  %7 = load i32, ptr %3, align 4, !tbaa !33
  %8 = add nsw i32 %7, %6
  store i32 %8, ptr %3, align 4, !tbaa !33
  %9 = load ptr, ptr %2, align 8, !tbaa !8
  %10 = call i32 @lv_obj_get_style_shadow_spread(ptr noundef %9, i32 noundef 196608)
  %11 = load i32, ptr %3, align 4, !tbaa !33
  %12 = add nsw i32 %11, %10
  store i32 %12, ptr %3, align 4, !tbaa !33
  %13 = load ptr, ptr %2, align 8, !tbaa !8
  %14 = call i32 @lv_obj_get_style_shadow_offset_x(ptr noundef %13, i32 noundef 196608)
  %15 = icmp sgt i32 %14, 0
  br i1 %15, label %16, label %19

16:                                               ; preds = %1
  %17 = load ptr, ptr %2, align 8, !tbaa !8
  %18 = call i32 @lv_obj_get_style_shadow_offset_x(ptr noundef %17, i32 noundef 196608)
  br label %23

19:                                               ; preds = %1
  %20 = load ptr, ptr %2, align 8, !tbaa !8
  %21 = call i32 @lv_obj_get_style_shadow_offset_x(ptr noundef %20, i32 noundef 196608)
  %22 = sub nsw i32 0, %21
  br label %23

23:                                               ; preds = %19, %16
  %24 = phi i32 [ %18, %16 ], [ %22, %19 ]
  %25 = load i32, ptr %3, align 4, !tbaa !33
  %26 = add nsw i32 %25, %24
  store i32 %26, ptr %3, align 4, !tbaa !33
  %27 = load ptr, ptr %2, align 8, !tbaa !8
  %28 = call i32 @lv_obj_get_style_shadow_offset_y(ptr noundef %27, i32 noundef 196608)
  %29 = icmp sgt i32 %28, 0
  br i1 %29, label %30, label %33

30:                                               ; preds = %23
  %31 = load ptr, ptr %2, align 8, !tbaa !8
  %32 = call i32 @lv_obj_get_style_shadow_offset_y(ptr noundef %31, i32 noundef 196608)
  br label %37

33:                                               ; preds = %23
  %34 = load ptr, ptr %2, align 8, !tbaa !8
  %35 = call i32 @lv_obj_get_style_shadow_offset_y(ptr noundef %34, i32 noundef 196608)
  %36 = sub nsw i32 0, %35
  br label %37

37:                                               ; preds = %33, %30
  %38 = phi i32 [ %32, %30 ], [ %36, %33 ]
  %39 = load i32, ptr %3, align 4, !tbaa !33
  %40 = add nsw i32 %39, %38
  store i32 %40, ptr %3, align 4, !tbaa !33
  call void @llvm.lifetime.start.p0(i64 4, ptr %4) #5
  store i32 0, ptr %4, align 4, !tbaa !33
  %41 = load ptr, ptr %2, align 8, !tbaa !8
  %42 = call i32 @lv_obj_get_style_outline_width(ptr noundef %41, i32 noundef 196608)
  %43 = load i32, ptr %4, align 4, !tbaa !33
  %44 = add nsw i32 %43, %42
  store i32 %44, ptr %4, align 4, !tbaa !33
  %45 = load ptr, ptr %2, align 8, !tbaa !8
  %46 = call i32 @lv_obj_get_style_outline_pad(ptr noundef %45, i32 noundef 196608)
  %47 = load i32, ptr %4, align 4, !tbaa !33
  %48 = add nsw i32 %47, %46
  store i32 %48, ptr %4, align 4, !tbaa !33
  %49 = load i32, ptr %3, align 4, !tbaa !33
  %50 = load i32, ptr %4, align 4, !tbaa !33
  %51 = icmp sgt i32 %49, %50
  br i1 %51, label %52, label %54

52:                                               ; preds = %37
  %53 = load i32, ptr %3, align 4, !tbaa !33
  br label %56

54:                                               ; preds = %37
  %55 = load i32, ptr %4, align 4, !tbaa !33
  br label %56

56:                                               ; preds = %54, %52
  %57 = phi i32 [ %53, %52 ], [ %55, %54 ]
  call void @llvm.lifetime.end.p0(i64 4, ptr %4) #5
  call void @llvm.lifetime.end.p0(i64 4, ptr %3) #5
  ret i32 %57
}