; Function Attrs: nounwind uwtable
define internal fastcc i32 @knob_get_extra_size(ptr noundef %0) unnamed_addr #0 {
  %2 = tail call ptr @lv_obj_get_style_prop(ptr noundef %0, i32 noundef 196608, i8 noundef zeroext 60) #7
  %3 = tail call ptr @lv_obj_get_style_prop(ptr noundef %0, i32 noundef 196608, i8 noundef zeroext 66) #7
  %4 = tail call ptr @lv_obj_get_style_prop(ptr noundef %0, i32 noundef 196608, i8 noundef zeroext 64) #7
  %5 = ptrtoint ptr %4 to i64
  %.sroa.0.0.extract.trunc.i20 = trunc i64 %5 to i32
  %6 = icmp sgt i32 %.sroa.0.0.extract.trunc.i20, 0
  %7 = tail call ptr @lv_obj_get_style_prop(ptr noundef %0, i32 noundef 196608, i8 noundef zeroext 64) #7
  %8 = ptrtoint ptr %7 to i64
  %.sroa.0.0.extract.trunc.i21 = trunc i64 %8 to i32
  %9 = sub nsw i32 0, %.sroa.0.0.extract.trunc.i21
  %10 = select i1 %6, i32 %.sroa.0.0.extract.trunc.i21, i32 %9
  %11 = tail call ptr @lv_obj_get_style_prop(ptr noundef %0, i32 noundef 196608, i8 noundef zeroext 65) #7
  %12 = ptrtoint ptr %11 to i64
  %.sroa.0.0.extract.trunc.i23 = trunc i64 %12 to i32
  %13 = icmp sgt i32 %.sroa.0.0.extract.trunc.i23, 0
  %14 = tail call ptr @lv_obj_get_style_prop(ptr noundef %0, i32 noundef 196608, i8 noundef zeroext 65) #7
  %15 = ptrtoint ptr %14 to i64
  %.sroa.0.0.extract.trunc.i24 = trunc i64 %15 to i32
  %16 = sub nsw i32 0, %.sroa.0.0.extract.trunc.i24
  %17 = select i1 %13, i32 %.sroa.0.0.extract.trunc.i24, i32 %16
  %18 = ptrtoint ptr %3 to i64
  %.sroa.0.0.extract.trunc.i19 = trunc i64 %18 to i32
  %19 = ptrtoint ptr %2 to i64
  %.sroa.0.0.extract.trunc.i = trunc i64 %19 to i32
  %20 = add nsw i32 %.sroa.0.0.extract.trunc.i19, %.sroa.0.0.extract.trunc.i
  %21 = add nsw i32 %20, %10
  %22 = add nsw i32 %21, %17
  %23 = tail call ptr @lv_obj_get_style_prop(ptr noundef %0, i32 noundef 196608, i8 noundef zeroext 56) #7
  %24 = ptrtoint ptr %23 to i64
  %.sroa.0.0.extract.trunc.i26 = trunc i64 %24 to i32
  %25 = tail call ptr @lv_obj_get_style_prop(ptr noundef %0, i32 noundef 196608, i8 noundef zeroext 59) #7
  %26 = ptrtoint ptr %25 to i64
  %.sroa.0.0.extract.trunc.i27 = trunc i64 %26 to i32
  %27 = add nsw i32 %.sroa.0.0.extract.trunc.i27, %.sroa.0.0.extract.trunc.i26
  %28 = tail call i32 @llvm.smax.i32(i32 %22, i32 %27)
  ret i32 %28
}